target datalayout = "e-m:e-p270:32:32-p271:32:32-p272:64:64-i64:64-i128:128-f80:128-n8:16:32:64-S128"
target triple = "x86_64-pc-linux-gnu"

%struct.Curl_multi = type { i32, i32, i32, %struct.Curl_llist, %struct.Curl_llist, %struct.Curl_llist, %struct.Curl_llist, i64, ptr, ptr, ptr, ptr, %struct.Curl_hash, ptr, %struct.PslCache, ptr, ptr, i64, ptr, i64, ptr, i64, %struct.Curl_hash, %struct.Curl_hash, %struct.cpool, i64, i64, ptr, ptr, i64, %struct.curltime, [2 x i32], i32, i32, i8, i8 }
%struct.Curl_llist = type { ptr, ptr, ptr, i64 }
%struct.PslCache = type { ptr, i64, i8 }
%struct.Curl_hash = type { ptr, ptr, ptr, ptr, i64, i64 }
%struct.cpool = type { %struct.Curl_hash, i64, i64, i64, %struct.curltime, %struct.Curl_llist, ptr, ptr, ptr, ptr, i8 }
%struct.curltime = type { i64, i32 }
%struct.Curl_llist_node = type { ptr, ptr, ptr, ptr }
%struct.Curl_message = type { %struct.Curl_llist_node, %struct.CURLMsg }
%struct.CURLMsg = type { i32, ptr, %union.anon }
%union.anon = type { ptr }

; Function Attrs: nounwind uwtable
define ptr @curl_multi_info_read(ptr noundef %0, ptr noundef %1) #0 {
  %3 = alloca ptr, align 8
  %4 = alloca ptr, align 8
  %5 = alloca ptr, align 8
  %6 = alloca ptr, align 8
  %7 = alloca ptr, align 8
  %8 = alloca ptr, align 8
  %9 = alloca i32, align 4
  store ptr %0, ptr %4, align 8, !tbaa !7
  store ptr %1, ptr %5, align 8, !tbaa !156
  call void @llvm.lifetime.start.p0(i64 8, ptr %6) #9
  call void @llvm.lifetime.start.p0(i64 8, ptr %7) #9
  %10 = load ptr, ptr %4, align 8, !tbaa !7
  store ptr %10, ptr %7, align 8, !tbaa !9
  %11 = load ptr, ptr %5, align 8, !tbaa !156
  store i32 0, ptr %11, align 4, !tbaa !30
  %12 = load ptr, ptr %7, align 8, !tbaa !9
  %13 = icmp ne ptr %12, null
  br i1 %13, label %14, label %46

14:                                               ; preds = %2
  %15 = load ptr, ptr %7, align 8, !tbaa !9
  %16 = getelementptr inbounds nuw %struct.Curl_multi, ptr %15, i32 0, i32 0
  %17 = load i32, ptr %16, align 8, !tbaa !11
  %18 = icmp eq i32 %17, 764702
  br i1 %18, label %19, label %46

19:                                               ; preds = %14
  %20 = load ptr, ptr %7, align 8, !tbaa !9
  %21 = getelementptr inbounds nuw %struct.Curl_multi, ptr %20, i32 0, i32 35
  %22 = load i8, ptr %21, align 1
  %23 = lshr i8 %22, 2
  %24 = and i8 %23, 1
  %25 = zext i8 %24 to i32
  %26 = icmp ne i32 %25, 0
  br i1 %26, label %46, label %27

27:                                               ; preds = %19
  %28 = load ptr, ptr %7, align 8, !tbaa !9
  %29 = getelementptr inbounds nuw %struct.Curl_multi, ptr %28, i32 0, i32 3
  %30 = call i64 @Curl_llist_count(ptr noundef %29)
  %31 = icmp ne i64 %30, 0
  br i1 %31, label %32, label %46

32:                                               ; preds = %27
  call void @llvm.lifetime.start.p0(i64 8, ptr %8) #9
  %33 = load ptr, ptr %7, align 8, !tbaa !9
  %34 = getelementptr inbounds nuw %struct.Curl_multi, ptr %33, i32 0, i32 3
  %35 = call ptr @Curl_llist_head(ptr noundef %34)
  store ptr %35, ptr %8, align 8, !tbaa !115
  %36 = load ptr, ptr %8, align 8, !tbaa !115
  %37 = call ptr @Curl_node_elem(ptr noundef %36)
  store ptr %37, ptr %6, align 8, !tbaa !128
  %38 = load ptr, ptr %8, align 8, !tbaa !115
  call void @Curl_node_remove(ptr noundef %38)
  %39 = load ptr, ptr %7, align 8, !tbaa !9
  %40 = getelementptr inbounds nuw %struct.Curl_multi, ptr %39, i32 0, i32 3
  %41 = call i64 @Curl_llist_count(ptr noundef %40)
  %42 = call i32 @curlx_uztosi(i64 noundef %41)
  %43 = load ptr, ptr %5, align 8, !tbaa !156
  store i32 %42, ptr %43, align 4, !tbaa !30
  %44 = load ptr, ptr %6, align 8, !tbaa !128
  %45 = getelementptr inbounds nuw %struct.Curl_message, ptr %44, i32 0, i32 1
  store ptr %45, ptr %3, align 8
  store i32 1, ptr %9, align 4
  call void @llvm.lifetime.end.p0(i64 8, ptr %8) #9
  br label %47

46:                                               ; preds = %27, %19, %14, %2
  store ptr null, ptr %3, align 8
  store i32 1, ptr %9, align 4
  br label %47

47:                                               ; preds = %46, %32
  call void @llvm.lifetime.end.p0(i64 8, ptr %7) #9
  call void @llvm.lifetime.end.p0(i64 8, ptr %6) #9
  %48 = load ptr, ptr %3, align 8
  ret ptr %48
}