; Function Attrs: nounwind uwtable
define ptr @curl_multi_info_read(ptr noundef %0, ptr noundef writeonly captures(none) initializes((0, 4)) %1) local_unnamed_addr #0 {
  store i32 0, ptr %1, align 4, !tbaa !28
  %.not = icmp eq ptr %0, null
  br i1 %.not, label %19, label %3

3:                                                ; preds = %2
  %4 = load i32, ptr %0, align 8, !tbaa !7
  %5 = icmp eq i32 %4, 764702
  br i1 %5, label %6, label %19

6:                                                ; preds = %3
  %7 = getelementptr inbounds nuw i8, ptr %0, i64 649
  %8 = load i8, ptr %7, align 1
  %9 = and i8 %8, 4
  %.not14 = icmp eq i8 %9, 0
  br i1 %.not14, label %10, label %19

10:                                               ; preds = %6
  %11 = getelementptr inbounds nuw i8, ptr %0, i64 16
  %12 = tail call i64 @Curl_llist_count(ptr noundef nonnull %11) #19
  %.not15 = icmp eq i64 %12, 0
  br i1 %.not15, label %19, label %13

13:                                               ; preds = %10
  %14 = tail call ptr @Curl_llist_head(ptr noundef nonnull %11) #19
  %15 = tail call ptr @Curl_node_elem(ptr noundef %14) #19
  tail call void @Curl_node_remove(ptr noundef %14) #19
  %16 = tail call i64 @Curl_llist_count(ptr noundef nonnull %11) #19
  %17 = tail call i32 @curlx_uztosi(i64 noundef %16) #19
  store i32 %17, ptr %1, align 4, !tbaa !28
  %18 = getelementptr inbounds nuw i8, ptr %15, i64 32
  br label %19

19:                                               ; preds = %2, %3, %6, %10, %13
  %.0 = phi ptr [ %18, %13 ], [ null, %10 ], [ null, %6 ], [ null, %3 ], [ null, %2 ]
  ret ptr %.0
}